(dp1
S'output'
p2
S'missing "pass" in view'
p3
sS'layer'
p4
S'ParserContainer'
p5
sS'code'
p6
S'response.write(\'<!DOCTYPE html>\\n<html>\\n\\n<head>\\n    <title>\', escape=False)\nresponse.write(response.title or request.application)\nresponse.write(\'</title>\\n    <meta name="viewport" content="width=device-width, initial-scale=1">\\n    <!-- Fonts -->\\n    <link href=\\\'http://fonts.googleapis.com/css?family=Roboto+Condensed:300,400\\\' rel=\\\'stylesheet\\\' type=\\\'text/css\\\'>\\n    <link href=\\\'http://fonts.googleapis.com/css?family=Lato:300,400,700,900\\\' rel=\\\'stylesheet\\\' type=\\\'text/css\\\'>\\n    <!-- CSS Libs -->\\n    <link rel="stylesheet" type="text/css" href="\', escape=False)\nresponse.write(URL(\'static\', \'css/bootstrap.min.css\'))\nresponse.write(\'">\\n    <link rel="stylesheet" type="text/css" href="\', escape=False)\nresponse.write(URL(\'static\', \'css/font-awesome.min.css\'))\nresponse.write(\'">\\n    <link rel="stylesheet" type="text/css" href="\', escape=False)\nresponse.write(URL(\'static\', \'css/animate.min.css\'))\nresponse.write(\'">\\n    <link rel="stylesheet" type="text/css" href="\', escape=False)\nresponse.write(URL(\'static\', \'css/bootstrap-switch.min.css\'))\nresponse.write(\'">\\n    <link rel="stylesheet" type="text/css" href="\', escape=False)\nresponse.write(URL(\'static\', \'css/checkbox3.min.css\'))\nresponse.write(\'">\\n    <link rel="stylesheet" type="text/css" href="\', escape=False)\nresponse.write(URL(\'static\', \'css/jquery.dataTables.min.css\'))\nresponse.write(\'">\\n    <link rel="stylesheet" type="text/css" href="\', escape=False)\nresponse.write(URL(\'static\', \'css/dataTables.bootstrap.css\'))\nresponse.write(\'">\\n    <link rel="stylesheet" type="text/css" href="\', escape=False)\nresponse.write(URL(\'static\', \'css/select2.min.css\'))\nresponse.write(\'">\\n    <!-- CSS App -->\\n    <link rel="stylesheet" type="text/css" href="\', escape=False)\nresponse.write(URL(\'static\', \'css/style.css\'))\nresponse.write(\'">\\n    <link rel="stylesheet" type="text/css" href="\', escape=False)\nresponse.write(URL(\'static\', \'css/themes/flat-blue.css\'))\nresponse.write(\'">\\n</head>\\n\\n<body class="flat-blue">\\n    <div class="app-container">\\n        <div class="row content-container">\\n            <nav class="navbar navbar-default navbar-fixed-top navbar-top">\\n                <div class="container-fluid">\\n                    <div class="navbar-header">\\n                        <button type="button" class="navbar-expand-toggle">\\n                            <i class="fa fa-bars icon"></i>\\n                        </button>\\n                        <ol class="breadcrumb navbar-breadcrumb">\\n                            \', escape=False)\nresponse.write(\'\\n\', escape=False)\nresponse.write(\'\\n                            <li><a href="\', escape=False)\nresponse.write(URL(\'dashboard\'))\nresponse.write(\'">Dashboard</a></li>\\n                            \', escape=False)\nresponse.write(\'\\n<li>\', escape=False)\nresponse.write(grupo.nome)\nresponse.write(\'</li>\\n\', escape=False)\nresponse.write(\'\\n                        </ol>\\n                        <button type="button" class="navbar-right-expand-toggle pull-right visible-xs">\\n                            <i class="fa fa-th icon"></i>\\n                        </button>\\n                    </div>\\n                    <ul class="nav navbar-nav navbar-right">\\n                        <li class="dropdown profile">\\n                            \\n                            <a href="#" class="dropdown-toggle" data-toggle="dropdown" role="button" aria-expanded="false">\\n                            \', escape=False)\nresponse.write(auth.user.first_name)\nresponse.write(\' \', escape=False)\nresponse.write(auth.user.last_name)\nresponse.write(\' \\n                            <span class="caret"></span>\\n                            </a>\\n                            \\n\\n                            <ul class="dropdown-menu animated fadeInDown">\\n                                <li class="profile-img">\\n                                    <img src="\', escape=False)\nresponse.write(URL(\'download\', args=auth.user.avatar))\nresponse.write(\'" class="profile-img">\\n                                </li>\\n                                <li>\\n                                    <div class="profile-info">\\n                                        <h4 class="username">\', escape=False)\nresponse.write(auth.user.first_name)\nresponse.write(\' \', escape=False)\nresponse.write(auth.user.last_name)\nresponse.write(\'</h4>\\n                                        <p>\', escape=False)\nresponse.write(auth.user.email)\nresponse.write(\'</p>\\n                                        <div class="btn-group margin-bottom-2x" role="group">\\n                                            <a href="\', escape=False)\nresponse.write(URL(\'user\', args=\'profile\'))\nresponse.write(\'">\\n                                            <button type="button" class="btn btn-primary"><i class="fa fa-user"></i>\', escape=False)\nresponse.write(T("Profile"))\nresponse.write(\'</button>\\n                                            </a>\\n                                            <a href="\', escape=False)\nresponse.write(URL(\'user\', args=\'logout\'))\nresponse.write(\'">\\n                                            <button type="button" class="btn btn-primary"><i class="fa fa-sign-out"></i>\', escape=False)\nresponse.write(T("Logout"))\nresponse.write(\'</button>\\n                                            </a>\\n                                        </div>\\n                                    </div>\\n                                </li>\\n                            </ul>\\n                        </li>\\n                    </ul>\\n                </div>\\n            </nav>\\n            <div class="side-menu sidebar-inverse">\\n                <nav class="navbar navbar-default" role="navigation">\\n                    <div class="side-menu-container">\\n                        <div class="navbar-header">\\n                            <a class="navbar-brand" href="#">\\n                                <div class="icon fa fa-paper-plane"></div>\\n                                <div class="title">\', escape=False)\nresponse.write(response.title or request.application)\nresponse.write(\'</div>\\n                            </a>\\n                            <button type="button" class="navbar-expand-toggle pull-right visible-xs">\\n                                <i class="fa fa-times icon"></i>\\n                            </button>\\n                        </div>\\n                        <ul class="nav navbar-nav">\\n                            <li>\\n                                <a href="\', escape=False)\nresponse.write(URL(\'dashboard\'))\nresponse.write(\'">\\n                                    <span class="icon fa fa-list"></span><span class="title">Dashboard</span>\\n                                </a>\\n                            </li>\\n                            \', escape=False)\nif request.function in [\'forum\', \'grupo\', \'atualizar_grupo\']:\n    response.write(\'\\n                            <li>\\n                                <a href="\', escape=False)\n    response.write(URL(\'forum\', args=request.args(0)))\n    response.write(\'">\\n                                    <span class="icon fa fa-comments"></span><span class="title">F\\xc3\\xb3rum</span>\\n                                </a>\\n                            </li>\\n                            \', escape=False)\n    pass\nresponse.write(\'\\n                            <li>\\n                                <a href="\', escape=False)\nresponse.write(URL(\'desejos\', args=auth.user.id))\nresponse.write(\'">\\n                                    <span class="icon fa fa-gift"></span><span class="title">Minha lista de desejos</span>\\n                                </a>\\n                            </li>\\n                        </ul>\\n                    </div>\\n                    <!-- /.navbar-collapse -->\\n                </nav>\\n            </div>\\n            <!-- Main Content -->\\n            <div class="container-fluid">\\n                <div class="side-body padding-top">\\n                    \', escape=False)\nresponse.write(\'\\n\\n\', escape=False)\nresponse.write(\'\\n\\n<div class="page-title">\\n\\t<span class="title">\', escape=False)\nresponse.write(grupo.nome)\nresponse.write(\'</span>\\n\\t\\t\', escape=False)\nif request.now.date() >= grupo.data_sorteio:\n    response.write(\'\\n\\t\\t<a href="\', escape=False)\n    response.write(URL(\'sortear\', args=grupo.id))\n    response.write(\'"><button type="button" class="btn btn-sm btn-info pull-right" style="margin-left: 5px;">Realizar sorteio</button></a>\\n\\t\\t\', escape=False)\n    pass\nresponse.write(\'\\n\\t<a href="\', escape=False)\nresponse.write(URL(\'forum\', args=grupo.id))\nresponse.write(\'">\\n\\t\\t<button type="button" class="btn btn-sm btn-warning pull-right">F\\xc3\\xb3rum</button> \\n\\t</a>\\n\\t<div class="description">Informa\\xc3\\xa7\\xc3\\xb5es do sorteio deste grupo.</div>\\n</div>\\n\\n<div class="row">\\n\\t<div class="col-xs-12">\\n\\t\\t<div class="card">\\n\\t\\t\\t<div class="card-body">\\n\\t\\t\\t\\t<div class="sub-title">Informa\\xc3\\xa7\\xc3\\xb5es do Sorteio</div>\\n\\t\\t\\t\\t<ul>\\n\\t\\t\\t\\t<li><strong>Data do Sorteio:</strong> \', escape=False)\nresponse.write(grupo.data_sorteio)\nresponse.write(\'</li>\\n\\t\\t\\t\\t<li><strong>Data de Revela\\xc3\\xa7\\xc3\\xa3o:</strong> \', escape=False)\nresponse.write(grupo.data_revelacao)\nresponse.write(\'</li>\\n\\t\\t\\t\\t<li><strong>Valor M\\xc3\\xa1ximo (R$):</strong> \', escape=False)\nresponse.write(grupo.valor_maximo)\nresponse.write(\'</li>\\n\\t\\t\\t\\t<li><strong>Status do Sorteio:</strong> \', escape=False)\nif sorteio:\n    response.write(\'Realizado\', escape=False)\nelse:\n    response.write(\'N\\xc3\\xa3o realizado at\\xc3\\xa9 o momento</li>\\n\\t\\t\\t\\t</ul>\\n\\t\\t\\t\\t<div class="sub-title">Participantes\\n\\t\\t\\t\\t<a href="\', escape=False)\n    response.write(URL(\'convidar_amigo\', args=grupo.id))\n    response.write(\'"><button class="btn btn-info btn-sm">Convidar Amigo</button></a>\\n\\t\\t\\t\\t</div>\\n\\t\\t\\t\\t\', escape=False)\n    for part in participantes:\n        response.write(\'\\n\\t\\t\\t\\t<div class="col-xs-2">\\n\\t\\t\\t\\t\\t<div class="card profile">\\n\\t\\t\\t\\t\\t\\t<div class="card-profile-img">\\n\\t\\t\\t\\t\\t\\t\\t<img src="\', escape=False)\n        response.write(URL(\'download\', args=part.avatar))\n        response.write(\'">\\n\\t\\t\\t\\t\\t\\t</div>\\n\\t\\t\\t\\t\\t\\t<div class="card-body">\\n\\t\\t\\t\\t\\t\\t\\t<div class="name">\', escape=False)\n        response.write(part.first_name)\n        response.write(\' \', escape=False)\n        response.write(part.last_name)\n        response.write(\'</div>\\n\\t\\t\\t\\t\\t\\t</div>\\n\\t\\t\\t\\t\\t\\t<div class="card-footer">\\n\\t\\t\\t\\t\\t\\t\\t<a href="\', escape=False)\n        response.write(URL(\'desejos\', args=part.id))\n        response.write(\'"><i class="fa fa-users"></i> Ver lista de desejos</a>\\n\\t\\t\\t\\t\\t\\t</div>\\n\\t\\t\\t\\t\\t</div>\\n\\t\\t\\t\\t</div>\\n\\t\\t\\t\\t\', escape=False)\n        pass\n    response.write(\'\\n\\t\\t\\t</div>\\n\\t\\t</div>\\n\\t</div>\\n</div>\', escape=False)\n    response.write(\'\\n                </div>\\n            </div>\\n        </div>\\n        <footer class="app-footer">\\n            <div class="wrapper">\\n                <span class="pull-right">2.1 <a href="#"><i class="fa fa-long-arrow-up"></i></a></span> \\xc2\\xa9 2015 Copyright. Designed by: <a href="http://www.tui2tone.com/">Tui2Tone</a> | Developed by: <a href="http://juliarizza.com">Julia Rizza</a>\\n            </div>\\n        </footer>\\n        <div>\\n            <!-- Javascript Libs -->\\n            <script type="text/javascript" src="\', escape=False)\n    response.write(URL(\'static\', \'js/jquery.min.js\'))\n    response.write(\'"></script>\\n            <script type="text/javascript" src="\', escape=False)\n    response.write(URL(\'static\', \'js/bootstrap.min.js\'))\n    response.write(\'"></script>\\n            <script type="text/javascript" src="\', escape=False)\n    response.write(URL(\'static\', \'js/Chart.min.js\'))\n    response.write(\'"></script>\\n            <script type="text/javascript" src="\', escape=False)\n    response.write(URL(\'static\', \'js/bootstrap-switch.min.js\'))\n    response.write(\'"></script>\\n            <script type="text/javascript" src="\', escape=False)\n    response.write(URL(\'static\', \'js/jquery.matchHeight-min.js\'))\n    response.write(\'"></script>\\n            <script type="text/javascript" src="\', escape=False)\n    response.write(URL(\'static\', \'js/jquery.dataTables.min.js\'))\n    response.write(\'"></script>\\n            <script type="text/javascript" src="\', escape=False)\n    response.write(URL(\'static\', \'js/dataTables.bootstrap.min.js\'))\n    response.write(\'"></script>\\n            <script type="text/javascript" src="\', escape=False)\n    response.write(URL(\'static\', \'js/select2.full.min.js\'))\n    response.write(\'"></script>\\n            <script type="text/javascript" src="\', escape=False)\n    response.write(URL(\'static\', \'js/ace/ace.js\'))\n    response.write(\'"></script>\\n            <script type="text/javascript" src="\', escape=False)\n    response.write(URL(\'static\', \'js/ace/mode-html.js\'))\n    response.write(\'"></script>\\n            <script type="text/javascript" src="\', escape=False)\n    response.write(URL(\'static\', \'js/ace/theme-github.js\'))\n    response.write(\'"></script>\\n            <!-- Javascript -->\\n            <script type="text/javascript" src="\', escape=False)\n    response.write(URL(\'static\', \'js/app.js\'))\n    response.write(\'"></script>\\n            <script type="text/javascript" src="\', escape=False)\n    response.write(URL(\'static\', \'js/index.js\'))\n    response.write(\'"></script>\\n</body>\\n\\n</html>\\n\', escape=False)'
p7
sS'snapshot'
p8
(dp9
S'exception'
p10
(dp11
S'__module__'
p12
S"'gluon.rocket'"
p13
sS'__getslice__'
p14
S"<method-wrapper '__getslice__' of SocketTimeout object>"
p15
sS'__str__'
p16
S"<method-wrapper '__str__' of SocketTimeout object>"
p17
sS'__reduce__'
p18
S'<built-in method __reduce__ of SocketTimeout object>'
p19
sS'__dict__'
p20
S'{}'
p21
sS'__sizeof__'
p22
S'<built-in method __sizeof__ of SocketTimeout object>'
p23
sS'__weakref__'
p24
S'None'
p25
sS'__init__'
p26
S"<method-wrapper '__init__' of SocketTimeout object>"
p27
sS'__setattr__'
p28
S"<method-wrapper '__setattr__' of SocketTimeout object>"
p29
sS'__reduce_ex__'
p30
S'<built-in method __reduce_ex__ of SocketTimeout object>'
p31
sS'__new__'
p32
S'<built-in method __new__ of type object>'
p33
sS'__format__'
p34
S'<built-in method __format__ of SocketTimeout object>'
p35
sS'__class__'
p36
S"<class 'gluon.rocket.SocketTimeout'>"
p37
sS'__doc__'
p38
S"'Exception for when a socket times out between requests.'"
p39
sS'__getitem__'
p40
S"<method-wrapper '__getitem__' of SocketTimeout object>"
p41
sS'__setstate__'
p42
S'<built-in method __setstate__ of SocketTimeout object>'
p43
sS'__getattribute__'
p44
S"<method-wrapper '__getattribute__' of SocketTimeout object>"
p45
sS'args'
p46
S"('Socket timed out before request.',)"
p47
sS'__subclasshook__'
p48
S'<built-in method __subclasshook__ of type object>'
p49
sS'__unicode__'
p50
S'<built-in method __unicode__ of SocketTimeout object>'
p51
sS'__delattr__'
p52
S"<method-wrapper '__delattr__' of SocketTimeout object>"
p53
sS'__repr__'
p54
S"<method-wrapper '__repr__' of SocketTimeout object>"
p55
sS'__hash__'
p56
S"<method-wrapper '__hash__' of SocketTimeout object>"
p57
ssS'evalue'
p58
S'Socket timed out before request.'
p59
sS'frames'
p60
(lp61
(dp62
S'file'
p63
S'/home/julia/Documents/web2py/gluon/rocket.py'
p64
sS'dump'
p65
(dp66
S'self'
p67
S'<WSGIWorker(Thread-9, started daemon 140606307276544)>'
p68
sS'conn'
p69
S'<gluon.rocket.Connection object>'
p70
sS'self.run_app'
p71
S'<bound method WSGIWorker.run_app of <WSGIWorker(Thread-9, started daemon 140606307276544)>>'
p72
ssS'lnum'
p73
I1337
sS'lines'
p74
(dp75
I1332
S'            # Enter connection serve loop'
p76
sI1333
S'            while True:'
p77
sI1334
S'                if __debug__:'
p78
sI1335
S"                    self.err_log.debug('Serving a request')"
p79
sI1336
S'                try:'
p80
sI1337
S'                    self.run_app(conn)'
p81
sI1338
S'                except:'
p82
sI1339
S'                    exc = sys.exc_info()'
p83
sI1340
S'                    handled = self._handleError(*exc)'
p84
sI1341
S'                    if handled:'
p85
ssS'call'
p86
S'(self=<WSGIWorker(Thread-9, started daemon 140606307276544)>)'
p87
sS'func'
p88
S'run'
p89
sa(dp90
g63
S'/home/julia/Documents/web2py/gluon/rocket.py'
p91
sg65
(dp92
S'self'
p93
S'<WSGIWorker(Thread-9, started daemon 140606307276544)>'
p94
sS'self.environ'
p95
S"{'HTTP_ACCEPT': 'text/html,application/xhtml+xml,application/xml;q=0.9,*/*;q=0.8', 'HTTP_ACCEPT_ENCODING': 'gzip, deflate', 'HTTP_ACCEPT_LANGUAGE': 'pt,en-US;q=0.7,en;q=0.3', 'HTTP_CACHE_CONTROL': 'max-age=0', 'HTTP_CONNECTION': 'keep-alive', 'HTTP_COOKIE': 'session_id_welcome=127.0.0.1-7276c2d9-a60c-4f79-...in=127.0.0.1-3009496e-70a0-4724-8580-fcb38ea7c7ef', 'HTTP_HOST': '127.0.0.1:8000', 'HTTP_REFERER': 'http://127.0.0.1:8000/sorteio/default/grupo/27', 'HTTP_USER_AGENT': 'Mozilla/5.0 (X11; Ubuntu; Linux x86_64; rv:44.0) Gecko/20100101 Firefox/44.0', 'PATH_INFO': '/sorteio/default/grupo/27', ...}"
p96
sS'sock_file'
p97
S'<socket._fileobject object>'
p98
sS'environ'
p99
S'undefined'
p100
sS'self.build_environ'
p101
S'<bound method WSGIWorker.build_environ of <WSGIWorker(Thread-9, started daemon 140606307276544)>>'
p102
sS'conn'
p103
S'<gluon.rocket.Connection object>'
p104
ssg73
I1830
sg74
(dp105
I1825
S'        else:'
p106
sI1826
S'            sock_file = conn.makefile(BUF_SIZE)'
p107
sI1827
S''
sI1828
S'        try:'
p108
sI1829
S'            # Read the headers and build our WSGI environment'
p109
sI1830
S'            self.environ = environ = self.build_environ(sock_file, conn)'
p110
sI1831
S''
sI1832
S'            # Handle 100 Continue'
p111
sI1833
S"            if environ.get('HTTP_EXPECT', '') == '100-continue':"
p112
sI1834
S"                res = environ['SERVER_PROTOCOL'] + ' 100 Continue\\r\\n\\r\\n'"
p113
ssg86
S'(self=<WSGIWorker(Thread-9, started daemon 140606307276544)>, conn=<gluon.rocket.Connection object>)'
p114
sg88
S'run_app'
p115
sa(dp116
g63
S'/home/julia/Documents/web2py/gluon/rocket.py'
p117
sg65
(dp118
S'sock_file'
p119
S'<socket._fileobject object>'
p120
sS'self.read_request_line'
p121
S'<bound method WSGIWorker.read_request_line of <W...orker(Thread-9, started daemon 140606307276544)>>'
p122
sS'self'
p123
S'<WSGIWorker(Thread-9, started daemon 140606307276544)>'
p124
sS'request'
p125
g100
ssg73
I1650
sg74
(dp126
I1645
S'                                      "wsgiorg.futures": executor.futures})'
p127
sI1646
S''
sI1647
S'    def build_environ(self, sock_file, conn):'
p128
sI1648
S'        """ Build the execution environment. """'
p129
sI1649
S'        # Grab the request line'
p130
sI1650
S'        request = self.read_request_line(sock_file)'
p131
sI1651
S''
sI1652
S'        # Copy the Base Environment'
p132
sI1653
S'        environ = self.base_environ.copy()'
p133
sI1654
S''
ssg86
S'(self=<WSGIWorker(Thread-9, started daemon 140606307276544)>, sock_file=<socket._fileobject object>, conn=<gluon.rocket.Connection object>)'
p134
sg88
S'build_environ'
p135
sa(dp136
g63
S'/home/julia/Documents/web2py/gluon/rocket.py'
p137
sg65
(dp138
S'global SocketTimeout'
p139
S"<class 'gluon.rocket.SocketTimeout'>"
p140
ssg73
I1401
sg74
(dp141
I1396
S''
sI1397
S'                d = sock_file.readline()'
p142
sI1398
S'                if PY3K:'
p143
sI1399
S"                    d = d.decode('ISO-8859-1')"
p144
sI1400
S'        except socket.timeout:'
p145
sI1401
S"            raise SocketTimeout('Socket timed out before request.')"
p146
sI1402
S'        except TypeError:'
p147
sI1403
S'            raise SocketClosed('
p148
sI1404
S"                'SSL bug caused closure of socket.  See '"
p149
sI1405
S'                \'"https://groups.google.com/d/topic/web2py/P_Gw0JxWzCs".\')'
p150
ssg86
S'(self=<WSGIWorker(Thread-9, started daemon 140606307276544)>, sock_file=<socket._fileobject object>)'
p151
sg88
S'read_request_line'
p152
sasS'pyver'
p153
S'Python 2.7.6: /usr/bin/python (prefix: /usr)'
p154
sS'etype'
p155
S"<class 'gluon.rocket.SocketTimeout'>"
p156
sS'date'
p157
S'Thu Feb 18 17:58:46 2016'
p158
sS'locals'
p159
(dp160
S'sock_file'
p161
S'<socket._fileobject object>'
p162
sS'self'
p163
S'<WSGIWorker(Thread-9, started daemon 140606307276544)>'
p164
sssS'traceback'
p165
S'Traceback (most recent call last):\n  File "/home/julia/Documents/web2py/gluon/rocket.py", line 1337, in run\n    self.run_app(conn)\n  File "/home/julia/Documents/web2py/gluon/rocket.py", line 1830, in run_app\n    self.environ = environ = self.build_environ(sock_file, conn)\n  File "/home/julia/Documents/web2py/gluon/rocket.py", line 1650, in build_environ\n    request = self.read_request_line(sock_file)\n  File "/home/julia/Documents/web2py/gluon/rocket.py", line 1401, in read_request_line\n    raise SocketTimeout(\'Socket timed out before request.\')\nSocketTimeout: Socket timed out before request.\n'
p166
s.