(dp1
S'output'
p2
S"<type 'exceptions.TypeError'> can't compare datetime.datetime to datetime.date"
p3
sS'layer'
p4
S'/home/julia/Documents/web2py/applications/sorteio/views/default/grupo.html'
p5
sS'code'
p6
S'response.write(\'<!DOCTYPE html>\\n<html>\\n\\n<head>\\n    <title>\', escape=False)\nresponse.write(response.title or request.application)\nresponse.write(\'</title>\\n    <meta name="viewport" content="width=device-width, initial-scale=1">\\n    <!-- Fonts -->\\n    <link href=\\\'http://fonts.googleapis.com/css?family=Roboto+Condensed:300,400\\\' rel=\\\'stylesheet\\\' type=\\\'text/css\\\'>\\n    <link href=\\\'http://fonts.googleapis.com/css?family=Lato:300,400,700,900\\\' rel=\\\'stylesheet\\\' type=\\\'text/css\\\'>\\n    <!-- CSS Libs -->\\n    <link rel="stylesheet" type="text/css" href="\', escape=False)\nresponse.write(URL(\'static\', \'css/bootstrap.min.css\'))\nresponse.write(\'">\\n    <link rel="stylesheet" type="text/css" href="\', escape=False)\nresponse.write(URL(\'static\', \'css/font-awesome.min.css\'))\nresponse.write(\'">\\n    <link rel="stylesheet" type="text/css" href="\', escape=False)\nresponse.write(URL(\'static\', \'css/animate.min.css\'))\nresponse.write(\'">\\n    <link rel="stylesheet" type="text/css" href="\', escape=False)\nresponse.write(URL(\'static\', \'css/bootstrap-switch.min.css\'))\nresponse.write(\'">\\n    <link rel="stylesheet" type="text/css" href="\', escape=False)\nresponse.write(URL(\'static\', \'css/checkbox3.min.css\'))\nresponse.write(\'">\\n    <link rel="stylesheet" type="text/css" href="\', escape=False)\nresponse.write(URL(\'static\', \'css/jquery.dataTables.min.css\'))\nresponse.write(\'">\\n    <link rel="stylesheet" type="text/css" href="\', escape=False)\nresponse.write(URL(\'static\', \'css/dataTables.bootstrap.css\'))\nresponse.write(\'">\\n    <link rel="stylesheet" type="text/css" href="\', escape=False)\nresponse.write(URL(\'static\', \'css/select2.min.css\'))\nresponse.write(\'">\\n    <!-- CSS App -->\\n    <link rel="stylesheet" type="text/css" href="\', escape=False)\nresponse.write(URL(\'static\', \'css/style.css\'))\nresponse.write(\'">\\n    <link rel="stylesheet" type="text/css" href="\', escape=False)\nresponse.write(URL(\'static\', \'css/themes/flat-blue.css\'))\nresponse.write(\'">\\n</head>\\n\\n<body class="flat-blue">\\n    <div class="app-container">\\n        <div class="row content-container">\\n            <nav class="navbar navbar-default navbar-fixed-top navbar-top">\\n                <div class="container-fluid">\\n                    <div class="navbar-header">\\n                        <button type="button" class="navbar-expand-toggle">\\n                            <i class="fa fa-bars icon"></i>\\n                        </button>\\n                        <ol class="breadcrumb navbar-breadcrumb">\\n                            \', escape=False)\nresponse.write(\'\\n\', escape=False)\nresponse.write(\'\\n                            <li><a href="\', escape=False)\nresponse.write(URL(\'dashboard\'))\nresponse.write(\'">Dashboard</a></li>\\n                            \', escape=False)\nresponse.write(\'\\n<li>\', escape=False)\nresponse.write(grupo.nome)\nresponse.write(\'</li>\\n\', escape=False)\nresponse.write(\'\\n                        </ol>\\n                        <button type="button" class="navbar-right-expand-toggle pull-right visible-xs">\\n                            <i class="fa fa-th icon"></i>\\n                        </button>\\n                    </div>\\n                    <ul class="nav navbar-nav navbar-right">\\n                        <li class="dropdown profile">\\n                            \\n                            <a href="#" class="dropdown-toggle" data-toggle="dropdown" role="button" aria-expanded="false">\\n                            \', escape=False)\nresponse.write(auth.user.first_name)\nresponse.write(\' \', escape=False)\nresponse.write(auth.user.last_name)\nresponse.write(\' \\n                            <span class="caret"></span>\\n                            </a>\\n                            \\n\\n                            <ul class="dropdown-menu animated fadeInDown">\\n                                <li class="profile-img">\\n                                    <img src="\', escape=False)\nresponse.write(URL(\'download\', args=auth.user.avatar))\nresponse.write(\'" class="profile-img">\\n                                </li>\\n                                <li>\\n                                    <div class="profile-info">\\n                                        <h4 class="username">\', escape=False)\nresponse.write(auth.user.first_name)\nresponse.write(\' \', escape=False)\nresponse.write(auth.user.last_name)\nresponse.write(\'</h4>\\n                                        <p>\', escape=False)\nresponse.write(auth.user.email)\nresponse.write(\'</p>\\n                                        <div class="btn-group margin-bottom-2x" role="group">\\n                                            <a href="\', escape=False)\nresponse.write(URL(\'user\', args=\'profile\'))\nresponse.write(\'">\\n                                            <button type="button" class="btn btn-primary"><i class="fa fa-user"></i>\', escape=False)\nresponse.write(T("Profile"))\nresponse.write(\'</button>\\n                                            </a>\\n                                            <a href="\', escape=False)\nresponse.write(URL(\'user\', args=\'logout\'))\nresponse.write(\'">\\n                                            <button type="button" class="btn btn-primary"><i class="fa fa-sign-out"></i>\', escape=False)\nresponse.write(T("Logout"))\nresponse.write(\'</button>\\n                                            </a>\\n                                        </div>\\n                                    </div>\\n                                </li>\\n                            </ul>\\n                        </li>\\n                    </ul>\\n                </div>\\n            </nav>\\n            <div class="side-menu sidebar-inverse">\\n                <nav class="navbar navbar-default" role="navigation">\\n                    <div class="side-menu-container">\\n                        <div class="navbar-header">\\n                            <a class="navbar-brand" href="#">\\n                                <div class="icon fa fa-paper-plane"></div>\\n                                <div class="title">\', escape=False)\nresponse.write(response.title or request.application)\nresponse.write(\'</div>\\n                            </a>\\n                            <button type="button" class="navbar-expand-toggle pull-right visible-xs">\\n                                <i class="fa fa-times icon"></i>\\n                            </button>\\n                        </div>\\n                        <ul class="nav navbar-nav">\\n                            <li>\\n                                <a href="\', escape=False)\nresponse.write(URL(\'dashboard\'))\nresponse.write(\'">\\n                                    <span class="icon fa fa-list"></span><span class="title">Dashboard</span>\\n                                </a>\\n                            </li>\\n                            \', escape=False)\nif request.function in [\'forum\', \'grupo\', \'atualizar_grupo\']:\n    response.write(\'\\n                            <li>\\n                                <a href="\', escape=False)\n    response.write(URL(\'forum\', args=request.args(0)))\n    response.write(\'">\\n                                    <span class="icon fa fa-comments"></span><span class="title">F\\xc3\\xb3rum</span>\\n                                </a>\\n                            </li>\\n                            \', escape=False)\n    pass\nresponse.write(\'\\n                            <li>\\n                                <a href="\', escape=False)\nresponse.write(URL(\'desejos\', args=auth.user.id))\nresponse.write(\'">\\n                                    <span class="icon fa fa-gift"></span><span class="title">Minha lista de desejos</span>\\n                                </a>\\n                            </li>\\n                        </ul>\\n                    </div>\\n                    <!-- /.navbar-collapse -->\\n                </nav>\\n            </div>\\n            <!-- Main Content -->\\n            <div class="container-fluid">\\n                <div class="side-body padding-top">\\n                    \', escape=False)\nresponse.write(\'\\n\\n\', escape=False)\nresponse.write(\'\\n\\n<div class="page-title">\\n\\t<span class="title">\', escape=False)\nresponse.write(grupo.nome)\nresponse.write(\'</span>\\n\\t\\t\', escape=False)\nif request.now >= grupo.data_sorteio:\n    response.write(\'\\n\\t\\t<button type="button" class="btn btn-sm btn-info pull-right" style="margin-left: 5px;">Realizar sorteio</button>\\n\\t\\t\', escape=False)\n    pass\nresponse.write(\'\\n\\t<a href="\', escape=False)\nresponse.write(URL(\'forum\', args=grupo.id))\nresponse.write(\'">\\n\\t\\t<button type="button" class="btn btn-sm btn-warning pull-right">F\\xc3\\xb3rum</button> \\n\\t</a>\\n\\t<div class="description">Informa\\xc3\\xa7\\xc3\\xb5es do sorteio deste grupo.</div>\\n</div>\\n\\n<div class="row">\\n\\t<div class="col-xs-12">\\n\\t\\t<div class="card">\\n\\t\\t\\t<div class="card-body">\\n\\t\\t\\t\\t<div class="sub-title">Informa\\xc3\\xa7\\xc3\\xb5es do Sorteio</div>\\n\\t\\t\\t\\t<ul>\\n\\t\\t\\t\\t<li><strong>Data do Sorteio:</strong> \', escape=False)\nresponse.write(grupo.data_sorteio)\nresponse.write(\'</li>\\n\\t\\t\\t\\t<li><strong>Data de Revela\\xc3\\xa7\\xc3\\xa3o:</strong> \', escape=False)\nresponse.write(grupo.data_revelacao)\nresponse.write(\'</li>\\n\\t\\t\\t\\t<li><strong>Valor M\\xc3\\xa1ximo (R$):</strong> \', escape=False)\nresponse.write(grupo.valor_maximo)\nresponse.write(\'</li>\\n\\t\\t\\t\\t</ul>\\n\\n\\t\\t\\t\\t<div class="sub-title">Participantes\\n\\t\\t\\t\\t<a href="\', escape=False)\nresponse.write(URL(\'convidar_amigo\', args=grupo.id))\nresponse.write(\'"><button class="btn btn-info btn-sm">Convidar Amigo</button></a>\\n\\t\\t\\t\\t</div>\\n\\t\\t\\t\\t\', escape=False)\nfor part in participantes:\n    response.write(\'\\n\\t\\t\\t\\t<div class="col-xs-2">\\n\\t\\t\\t\\t\\t<div class="card profile">\\n\\t\\t\\t\\t\\t\\t<div class="card-profile-img">\\n\\t\\t\\t\\t\\t\\t\\t<img src="\', escape=False)\n    response.write(URL(\'download\', args=part.avatar))\n    response.write(\'">\\n\\t\\t\\t\\t\\t\\t</div>\\n\\t\\t\\t\\t\\t\\t<div class="card-body">\\n\\t\\t\\t\\t\\t\\t\\t<div class="name">\', escape=False)\n    response.write(part.first_name)\n    response.write(\' \', escape=False)\n    response.write(part.last_name)\n    response.write(\'</div>\\n\\t\\t\\t\\t\\t\\t</div>\\n\\t\\t\\t\\t\\t\\t<div class="card-footer">\\n\\t\\t\\t\\t\\t\\t\\t<a href="\', escape=False)\n    response.write(URL(\'desejos\', args=part.id))\n    response.write(\'"><i class="fa fa-users"></i> Ver lista de desejos</a>\\n\\t\\t\\t\\t\\t\\t</div>\\n\\t\\t\\t\\t\\t</div>\\n\\t\\t\\t\\t</div>\\n\\t\\t\\t\\t\', escape=False)\n    pass\nresponse.write(\'\\n\\t\\t\\t</div>\\n\\t\\t</div>\\n\\t</div>\\n</div>\', escape=False)\nresponse.write(\'\\n                </div>\\n            </div>\\n        </div>\\n        <footer class="app-footer">\\n            <div class="wrapper">\\n                <span class="pull-right">2.1 <a href="#"><i class="fa fa-long-arrow-up"></i></a></span> \\xc2\\xa9 2015 Copyright. Designed by: <a href="http://www.tui2tone.com/">Tui2Tone</a> | Developed by: <a href="http://juliarizza.com">Julia Rizza</a>\\n            </div>\\n        </footer>\\n        <div>\\n            <!-- Javascript Libs -->\\n            <script type="text/javascript" src="\', escape=False)\nresponse.write(URL(\'static\', \'js/jquery.min.js\'))\nresponse.write(\'"></script>\\n            <script type="text/javascript" src="\', escape=False)\nresponse.write(URL(\'static\', \'js/bootstrap.min.js\'))\nresponse.write(\'"></script>\\n            <script type="text/javascript" src="\', escape=False)\nresponse.write(URL(\'static\', \'js/Chart.min.js\'))\nresponse.write(\'"></script>\\n            <script type="text/javascript" src="\', escape=False)\nresponse.write(URL(\'static\', \'js/bootstrap-switch.min.js\'))\nresponse.write(\'"></script>\\n            <script type="text/javascript" src="\', escape=False)\nresponse.write(URL(\'static\', \'js/jquery.matchHeight-min.js\'))\nresponse.write(\'"></script>\\n            <script type="text/javascript" src="\', escape=False)\nresponse.write(URL(\'static\', \'js/jquery.dataTables.min.js\'))\nresponse.write(\'"></script>\\n            <script type="text/javascript" src="\', escape=False)\nresponse.write(URL(\'static\', \'js/dataTables.bootstrap.min.js\'))\nresponse.write(\'"></script>\\n            <script type="text/javascript" src="\', escape=False)\nresponse.write(URL(\'static\', \'js/select2.full.min.js\'))\nresponse.write(\'"></script>\\n            <script type="text/javascript" src="\', escape=False)\nresponse.write(URL(\'static\', \'js/ace/ace.js\'))\nresponse.write(\'"></script>\\n            <script type="text/javascript" src="\', escape=False)\nresponse.write(URL(\'static\', \'js/ace/mode-html.js\'))\nresponse.write(\'"></script>\\n            <script type="text/javascript" src="\', escape=False)\nresponse.write(URL(\'static\', \'js/ace/theme-github.js\'))\nresponse.write(\'"></script>\\n            <!-- Javascript -->\\n            <script type="text/javascript" src="\', escape=False)\nresponse.write(URL(\'static\', \'js/app.js\'))\nresponse.write(\'"></script>\\n            <script type="text/javascript" src="\', escape=False)\nresponse.write(URL(\'static\', \'js/index.js\'))\nresponse.write(\'"></script>\\n</body>\\n\\n</html>\\n\', escape=False)'
p7
sS'snapshot'
p8
(dp9
sS'traceback'
p10
S'Traceback (most recent call last):\n  File "/home/julia/Documents/web2py/gluon/restricted.py", line 227, in restricted\n    exec ccode in environment\n  File "/home/julia/Documents/web2py/applications/sorteio/views/default/grupo.html", line 68, in <module>\nTypeError: can\'t compare datetime.datetime to datetime.date\n'
p11
s.